target datalayout = "e-m:e-p270:32:32-p271:32:32-p272:64:64-i64:64-i128:128-f80:128-n8:16:32:64-S128"
target triple = "x86_64-pc-linux-gnu"

@hf_wc_identity_ip_address_index = internal global i32 0, align 4
@hf_wc_identity_ip_address_ipv4 = internal global i32 0, align 4
@hf_wc_identity_ip_address_ipv6 = internal global i32 0, align 4
@ett_wc_identity_element = internal global i32 0, align 4

; Function Attrs: null_pointer_is_valid sspstrong uwtable
define internal i32 @dissect_wccp2_wc_identity_info(ptr noundef %0, i32 noundef %1, i32 noundef %2, ptr noundef %3, ptr noundef %4, ptr noundef %5) #0 {
  %7 = alloca ptr, align 8
  %8 = alloca i32, align 4
  %9 = alloca i32, align 4
  %10 = alloca ptr, align 8
  %11 = alloca ptr, align 8
  %12 = alloca ptr, align 8
  %13 = alloca ptr, align 8
  %14 = alloca ptr, align 8
  store ptr %0, ptr %7, align 8
  store i32 %1, ptr %8, align 4
  store i32 %2, ptr %9, align 4
  store ptr %3, ptr %10, align 8
  store ptr %4, ptr %11, align 8
  store ptr %5, ptr %12, align 8
  call void @llvm.lifetime.start.p0(i64 8, ptr %13) #9
  call void @llvm.lifetime.start.p0(i64 8, ptr %14) #9
  %15 = load ptr, ptr %11, align 8
  %16 = load i32, ptr @hf_wc_identity_ip_address_index, align 4
  %17 = load i32, ptr @hf_wc_identity_ip_address_ipv4, align 4
  %18 = load i32, ptr @hf_wc_identity_ip_address_ipv6, align 4
  %19 = load ptr, ptr %7, align 8
  %20 = load i32, ptr %8, align 4
  %21 = load ptr, ptr %12, align 8
  %22 = call ptr @wccp_add_ipaddress_item(ptr noundef %15, i32 noundef %16, i32 noundef %17, i32 noundef %18, ptr noundef %19, i32 noundef %20, i32 noundef 4, ptr noundef %21)
  store ptr %22, ptr %13, align 8
  %23 = load ptr, ptr %13, align 8
  %24 = load i32, ptr @ett_wc_identity_element, align 4
  %25 = call ptr @proto_item_add_subtree(ptr noundef %23, i32 noundef %24)
  store ptr %25, ptr %14, align 8
  %26 = load ptr, ptr %7, align 8
  %27 = load i32, ptr %8, align 4
  %28 = load i32, ptr %9, align 4
  %29 = load ptr, ptr %10, align 8
  %30 = load ptr, ptr %14, align 8
  %31 = load ptr, ptr %12, align 8
  %32 = call i32 @dissect_wccp2_web_cache_identity_element(ptr noundef %26, i32 noundef %27, i32 noundef %28, ptr noundef %29, ptr noundef %30, ptr noundef %31)
  call void @llvm.lifetime.end.p0(i64 8, ptr %14) #9
  call void @llvm.lifetime.end.p0(i64 8, ptr %13) #9
  ret i32 %32
}