; Function Attrs: null_pointer_is_valid sspstrong uwtable
define internal i32 @dissect_wccp2_wc_identity_info(ptr noundef %0, i32 noundef %1, i32 noundef %2, ptr noundef %3, ptr noundef %4, ptr noundef readonly captures(none) %5) unnamed_addr #0 {
  %7 = load i32, ptr @hf_wc_identity_ip_address_index, align 4
  %8 = load i32, ptr @hf_wc_identity_ip_address_ipv4, align 4
  %9 = load i32, ptr @hf_wc_identity_ip_address_ipv6, align 4
  %10 = tail call fastcc ptr @wccp_add_ipaddress_item(ptr noundef %4, i32 noundef %7, i32 noundef %8, i32 noundef %9, ptr noundef %0, i32 noundef %1, ptr noundef %5)
  %11 = load i32, ptr @ett_wc_identity_element, align 4
  %12 = tail call ptr @proto_item_add_subtree(ptr noundef %10, i32 noundef %11)
  %13 = tail call fastcc i32 @dissect_wccp2_web_cache_identity_element(ptr noundef %0, i32 noundef %1, i32 noundef %2, ptr noundef %3, ptr noundef %12, ptr noundef %5)
  ret i32 %13
}